target datalayout = "e-m:e-p270:32:32-p271:32:32-p272:64:64-i64:64-i128:128-f80:128-n8:16:32:64-S128"
target triple = "x86_64-pc-linux-gnu"

%"class.llvm::DWARFAcceleratorTable" = type { ptr, %"class.llvm::DWARFDataExtractor", %"class.llvm::DataExtractor" }
%"class.llvm::DWARFDataExtractor" = type { %"class.llvm::DataExtractor.base", ptr, ptr }
%"class.llvm::DataExtractor.base" = type <{ %"class.llvm::StringRef", i8, i8 }>
%"class.llvm::StringRef" = type { ptr, i64 }
%"class.llvm::DataExtractor" = type <{ %"class.llvm::StringRef", i8, i8, [6 x i8] }>
%"struct.llvm::DWARFDebugNames::Header" = type { i64, i8, i16, i32, i32, i32, i32, i32, i32, i32, %"class.llvm::SmallString" }
%"class.llvm::SmallString" = type { %"class.llvm::SmallVector.73" }
%"class.llvm::SmallVector.73" = type { %"class.llvm::SmallVectorImpl.74", %"struct.llvm::SmallVectorStorage.78" }
%"class.llvm::SmallVectorImpl.74" = type { %"class.llvm::SmallVectorTemplateBase.75" }
%"class.llvm::SmallVectorTemplateBase.75" = type { %"class.llvm::SmallVectorTemplateCommon.76" }
%"class.llvm::SmallVectorTemplateCommon.76" = type { %"class.llvm::SmallVectorBase.77" }
%"class.llvm::SmallVectorBase.77" = type { ptr, i64, i64 }
%"struct.llvm::SmallVectorStorage.78" = type { [8 x i8] }
%"class.llvm::DWARFDebugNames::NameIndex" = type { %"class.llvm::DenseSet", %"struct.llvm::DWARFDebugNames::Header", ptr, i64, %"struct.llvm::DWARFDebugNames::DWARFDebugNamesOffsets" }
%"class.llvm::DenseSet" = type { %"class.llvm::detail::DenseSetImpl" }
%"class.llvm::detail::DenseSetImpl" = type { %"class.llvm::DenseMap" }
%"class.llvm::DenseMap" = type <{ ptr, i32, i32, i32, [4 x i8] }>
%"struct.llvm::DWARFDebugNames::DWARFDebugNamesOffsets" = type { i64, i64, i64, i64, i64, i64 }
%"class.llvm::DWARFDebugNames::NameTableEntry" = type { %"class.llvm::DataExtractor", i32, i64, i64 }

; Function Attrs: mustprogress nounwind uwtable
define linkonce_odr hidden void @_ZN4llvm15DWARFDebugNames14NameTableEntryC2ERKNS_13DataExtractorEjmm(ptr noundef nonnull align 8 dereferenceable(48) %0, ptr noundef nonnull align 8 dereferenceable(18) %1, i32 noundef %2, i64 noundef %3, i64 noundef %4) unnamed_addr #0 comdat align 2 {
  %6 = alloca ptr, align 8
  %7 = alloca ptr, align 8
  %8 = alloca i32, align 4
  %9 = alloca i64, align 8
  %10 = alloca i64, align 8
  store ptr %0, ptr %6, align 8
  store ptr %1, ptr %7, align 8
  store i32 %2, ptr %8, align 4
  store i64 %3, ptr %9, align 8
  store i64 %4, ptr %10, align 8
  %11 = load ptr, ptr %6, align 8
  %12 = getelementptr inbounds nuw %"class.llvm::DWARFDebugNames::NameTableEntry", ptr %11, i32 0, i32 0
  %13 = load ptr, ptr %7, align 8
  call void @llvm.memcpy.p0.p0.i64(ptr align 8 %12, ptr align 8 %13, i64 24, i1 false)
  %14 = getelementptr inbounds nuw %"class.llvm::DWARFDebugNames::NameTableEntry", ptr %11, i32 0, i32 1
  %15 = load i32, ptr %8, align 4
  store i32 %15, ptr %14, align 8
  %16 = getelementptr inbounds nuw %"class.llvm::DWARFDebugNames::NameTableEntry", ptr %11, i32 0, i32 2
  %17 = load i64, ptr %9, align 8
  store i64 %17, ptr %16, align 8
  %18 = getelementptr inbounds nuw %"class.llvm::DWARFDebugNames::NameTableEntry", ptr %11, i32 0, i32 3
  %19 = load i64, ptr %10, align 8
  store i64 %19, ptr %18, align 8
  ret void
}

; Function Attrs: mustprogress nounwind uwtable
define linkonce_odr hidden noundef zeroext i8 @_ZN4llvm5dwarf22getDwarfOffsetByteSizeENS0_11DwarfFormatE(i8 noundef zeroext %0) #0 comdat {
  %2 = alloca i8, align 1
  %3 = alloca i8, align 1
  store i8 %0, ptr %3, align 1
  %4 = load i8, ptr %3, align 1
  %5 = zext i8 %4 to i32
  switch i32 %5, label %8 [
    i32 0, label %6
    i32 1, label %7
  ]

6:                                                ; preds = %1
  store i8 4, ptr %2, align 1
  br label %9

7:                                                ; preds = %1
  store i8 8, ptr %2, align 1
  br label %9

8:                                                ; preds = %1
  unreachable

9:                                                ; preds = %7, %6
  %10 = load i8, ptr %2, align 1
  ret i8 %10
}

; Function Attrs: mustprogress nounwind uwtable
define dso_local void @_ZNK4llvm15DWARFDebugNames9NameIndex17getNameTableEntryEj(ptr dead_on_unwind noalias writable sret(%"class.llvm::DWARFDebugNames::NameTableEntry") align 8 %0, ptr noundef nonnull align 8 dereferenceable(160) %1, i32 noundef %2) #0 align 2 {
  %4 = alloca ptr, align 8
  %5 = alloca i32, align 4
  %6 = alloca i32, align 4
  %7 = alloca i64, align 8
  %8 = alloca i64, align 8
  %9 = alloca ptr, align 8
  %10 = alloca i64, align 8
  %11 = alloca i64, align 8
  store ptr %1, ptr %4, align 8
  store i32 %2, ptr %5, align 4
  %12 = load ptr, ptr %4, align 8
  %13 = getelementptr inbounds nuw %"class.llvm::DWARFDebugNames::NameIndex", ptr %12, i32 0, i32 1
  %14 = getelementptr inbounds nuw %"struct.llvm::DWARFDebugNames::Header", ptr %13, i32 0, i32 1
  %15 = load i8, ptr %14, align 8
  %16 = call noundef zeroext i8 @_ZN4llvm5dwarf22getDwarfOffsetByteSizeENS0_11DwarfFormatE(i8 noundef zeroext %15)
  %17 = zext i8 %16 to i32
  store i32 %17, ptr %6, align 4
  %18 = getelementptr inbounds nuw %"class.llvm::DWARFDebugNames::NameIndex", ptr %12, i32 0, i32 4
  %19 = getelementptr inbounds nuw %"struct.llvm::DWARFDebugNames::DWARFDebugNamesOffsets", ptr %18, i32 0, i32 3
  %20 = load i64, ptr %19, align 8
  %21 = load i32, ptr %6, align 4
  %22 = load i32, ptr %5, align 4
  %23 = sub i32 %22, 1
  %24 = mul i32 %21, %23
  %25 = zext i32 %24 to i64
  %26 = add i64 %20, %25
  store i64 %26, ptr %7, align 8
  %27 = getelementptr inbounds nuw %"class.llvm::DWARFDebugNames::NameIndex", ptr %12, i32 0, i32 4
  %28 = getelementptr inbounds nuw %"struct.llvm::DWARFDebugNames::DWARFDebugNamesOffsets", ptr %27, i32 0, i32 4
  %29 = load i64, ptr %28, align 8
  %30 = load i32, ptr %6, align 4
  %31 = load i32, ptr %5, align 4
  %32 = sub i32 %31, 1
  %33 = mul i32 %30, %32
  %34 = zext i32 %33 to i64
  %35 = add i64 %29, %34
  store i64 %35, ptr %8, align 8
  %36 = getelementptr inbounds nuw %"class.llvm::DWARFDebugNames::NameIndex", ptr %12, i32 0, i32 2
  %37 = load ptr, ptr %36, align 8
  %38 = getelementptr inbounds nuw %"class.llvm::DWARFAcceleratorTable", ptr %37, i32 0, i32 1
  store ptr %38, ptr %9, align 8
  %39 = load ptr, ptr %9, align 8
  %40 = load i32, ptr %6, align 4
  %41 = call noundef i64 @_ZNK4llvm18DWARFDataExtractor17getRelocatedValueEjPmS1_PNS_5ErrorE(ptr noundef nonnull align 8 dereferenceable(40) %39, i32 noundef %40, ptr noundef %7, ptr noundef null, ptr noundef null)
  store i64 %41, ptr %10, align 8
  %42 = load ptr, ptr %9, align 8
  %43 = load i32, ptr %6, align 4
  %44 = call noundef i64 @_ZNK4llvm13DataExtractor11getUnsignedEPmjPNS_5ErrorE(ptr noundef nonnull align 8 dereferenceable(18) %42, ptr noundef %8, i32 noundef %43, ptr noundef null)
  store i64 %44, ptr %11, align 8
  %45 = getelementptr inbounds nuw %"class.llvm::DWARFDebugNames::NameIndex", ptr %12, i32 0, i32 4
  %46 = getelementptr inbounds nuw %"struct.llvm::DWARFDebugNames::DWARFDebugNamesOffsets", ptr %45, i32 0, i32 5
  %47 = load i64, ptr %46, align 8
  %48 = load i64, ptr %11, align 8
  %49 = add i64 %48, %47
  store i64 %49, ptr %11, align 8
  %50 = getelementptr inbounds nuw %"class.llvm::DWARFDebugNames::NameIndex", ptr %12, i32 0, i32 2
  %51 = load ptr, ptr %50, align 8
  %52 = getelementptr inbounds nuw %"class.llvm::DWARFAcceleratorTable", ptr %51, i32 0, i32 2
  %53 = load i32, ptr %5, align 4
  %54 = load i64, ptr %10, align 8
  %55 = load i64, ptr %11, align 8
  call void @_ZN4llvm15DWARFDebugNames14NameTableEntryC2ERKNS_13DataExtractorEjmm(ptr noundef nonnull align 8 dereferenceable(48) %0, ptr noundef nonnull align 8 dereferenceable(18) %52, i32 noundef %53, i64 noundef %54, i64 noundef %55)
  ret void
}