; Function Attrs: mustprogress nounwind uwtable
define dso_local void @_ZNK4llvm15DWARFDebugNames9NameIndex17getNameTableEntryEj(ptr dead_on_unwind noalias writable writeonly sret(%"class.llvm::DWARFDebugNames::NameTableEntry") align 8 captures(none) initializes((0, 28), (32, 48)) %0, ptr noundef nonnull readonly align 8 captures(none) dereferenceable(160) %1, i32 noundef %2) local_unnamed_addr #3 align 2 {
  %4 = alloca i64, align 8
  %5 = alloca i64, align 8
  %6 = getelementptr inbounds nuw i8, ptr %1, i64 32
  %7 = load i8, ptr %6, align 8
  %switch.i = icmp eq i8 %7, 0
  %..i = select i1 %switch.i, i32 4, i32 8
  %8 = getelementptr inbounds nuw i8, ptr %1, i64 136
  %9 = load i64, ptr %8, align 8
  %10 = add i32 %2, -1
  %11 = select i1 %switch.i, i32 2, i32 3
  %12 = shl i32 %10, %11
  %13 = zext i32 %12 to i64
  %14 = add i64 %9, %13
  store i64 %14, ptr %4, align 8
  %15 = getelementptr inbounds nuw i8, ptr %1, i64 144
  %16 = load i64, ptr %15, align 8
  %17 = add i64 %16, %13
  store i64 %17, ptr %5, align 8
  %18 = getelementptr inbounds nuw i8, ptr %1, i64 96
  %19 = load ptr, ptr %18, align 8
  %20 = getelementptr inbounds nuw i8, ptr %19, i64 8
  %21 = call noundef i64 @_ZNK4llvm18DWARFDataExtractor17getRelocatedValueEjPmS1_PNS_5ErrorE(ptr noundef nonnull align 8 dereferenceable(40) %20, i32 noundef %..i, ptr noundef nonnull %4, ptr noundef null, ptr noundef null) #27
  %22 = call noundef i64 @_ZNK4llvm13DataExtractor11getUnsignedEPmjPNS_5ErrorE(ptr noundef nonnull align 8 dereferenceable(18) %20, ptr noundef nonnull %5, i32 noundef %..i, ptr noundef null) #27
  %23 = getelementptr inbounds nuw i8, ptr %1, i64 152
  %24 = load i64, ptr %23, align 8
  %25 = add i64 %24, %22
  %26 = load ptr, ptr %18, align 8
  %27 = getelementptr inbounds nuw i8, ptr %26, i64 48
  call void @llvm.memcpy.p0.p0.i64(ptr noundef nonnull align 8 dereferenceable(48) %0, ptr noundef nonnull align 8 dereferenceable(24) %27, i64 24, i1 false)
  %28 = getelementptr inbounds nuw i8, ptr %0, i64 24
  store i32 %2, ptr %28, align 8
  %29 = getelementptr inbounds nuw i8, ptr %0, i64 32
  store i64 %21, ptr %29, align 8
  %30 = getelementptr inbounds nuw i8, ptr %0, i64 40
  store i64 %25, ptr %30, align 8
  ret void
}